ccollections
defaultdict
p1
(c__builtin__
int
p2
tRp3
S'.e9gsno'
p4
I1
sS'.knsyjk'
p5
I1
sS'.api5v4'
p6
I1
sS'.y0yvo2'
p7
I1
sS'.3aorpi'
p8
I1
sS'.qpiblc'
p9
I1
sS'.ovya60'
p10
I1
sS'.kqistr'
p11
I1
sS'.d2dzz7'
p12
I1
sS'.fr26qm'
p13
I1
sS'.xx3iey'
p14
I1
sS'.7e3kb4'
p15
I1
sS'.yyww0o'
p16
I1
sS'.k5rxkc'
p17
I1
sS'.tux21e'
p18
I1
sS'.txt5qm'
p19
I1
sS'.dstod2'
p20
I1
sS'.1mfq3s'
p21
I1
sS'.tcwulm'
p22
I1
sS'.jaismq'
p23
I1
sS'.y8yyaa'
p24
I1
sS'.wxrp3p'
p25
I1
sS'.7ydzpk'
p26
I1
sS'.zewwm4'
p27
I1
sS'.iqrego'
p28
I1
sS'.jq8knh'
p29
I1
sS'.b6hqic'
p30
I1
sS'.cmjvgb'
p31
I1
sS'.gt4o7i'
p32
I1
sS'.jygz9o'
p33
I1
sS'.o3gnjc'
p34
I1
sS'.xnyw1z'
p35
I1
sS'.nc'
p36
I64647
sS'.c9mixy'
p37
I1
sS'.yjrakh'
p38
I1
sS'.lo0mry'
p39
I1
sS'.fwclez'
p40
I1
sS'.7cgphq'
p41
I1
sS'.stirpp'
p42
I1
sS'.pfujme'
p43
I1
sS'.tepwqy'
p44
I1
sS'.xhujsk'
p45
I1
sS'.emacvd'
p46
I1
sS'.rovbyl'
p47
I1
sS'.rlqutt'
p48
I1
sS'.ysv9te'
p49
I1
sS'.ca4vfe'
p50
I1
sS'.cha1hc'
p51
I1
sS'.zhbigo'
p52
I1
sS'.heweoy'
p53
I1
sS'.zumxdn'
p54
I1
sS'.pbbd5w'
p55
I1
sS'.7tfyw9'
p56
I1
sS'.2mkwzl'
p57
I1
sS'.nrt1mm'
p58
I1
s.