ccollections
defaultdict
p1
(c__builtin__
int
p2
tRp3
S''
I287
sS'.sh'
p4
I4
sS'.xcactivitylog'
p5
I71
sS'.xcworkspacedata'
p6
I28
sS'.cp'
p7
I1
sS'.xcindexdb'
p8
I28
sS'.pbxuser'
p9
I3
sS'.xcsettings'
p10
I1
sS'.jpg'
p11
I3
sS'.cpp'
p12
I423
sS'.pbxsymbols'
p13
I3
sS'.docx'
p14
I6
sS'.idx'
p15
I18
sS'.xcscheme'
p16
I27
sS'.zip'
p17
I7
sS'.xcindexdb-wal'
p18
I1
sS'.bak'
p19
I1
sS'.sample'
p20
I140
sS'.gif'
p21
I165
sS'.xcindexdb-shm'
p22
I1
sS'.db'
p23
I38
sS'.strings-dir'
p24
I27
sS'.strings-cmp'
p25
I17
sS'.dat'
p26
I44
sS'.ppm'
p27
I10
sS'.hmap'
p28
I149
sS'.rtf'
p29
I11
sS'.dep'
p30
I38
sS'.out'
p31
I6
sS'.asm'
p32
I12
sS'.gch'
p33
I2
sS'.v3'
p34
I1
sS'.v2'
p35
I2
sS'.xcuserstate'
p36
I28
sS'.doc'
p37
I27
sS'.o~>'
p38
I1
sS'.xcbkptlist'
p39
I22
sS'.dia'
p40
I29
sS'.pbxproj'
p41
I29
sS'.js'
p42
I328
sS'.plist'
p43
I73
sS'.o~$'
p44
I1
sS'.1'
p45
I28
sS'.linkfilelist'
p46
I19
sS'.ppt'
p47
I40
sS'.strings-sym'
p48
I27
sS'.h'
p49
I155
sS'.strings-res'
p50
I27
sS'.pptx'
p51
I1
sS'.pages'
p52
I3
sS'.header'
p53
I3
sS'.o'
p54
I48
sS'.tar'
p55
I3
sS'.d'
p56
I34
sS'.strings-file'
p57
I27
sS'.css'
p58
I36
sS'.pbxbtree'
p59
I24
sS'.scm'
p60
I1
sS'.txt'
p61
I44
sS'.psd'
p62
I16
sS'.html'
p63
I37
sS'.mode1v3'
p64
I3
sS'.xcfilemap'
p65
I6
sS'.pdf'
p66
I103
sS'.foo'
p67
I1
sS'.v'
p68
I1
sS'.xlsx'
p69
I1
s.